target datalayout = "e-m:e-p270:32:32-p271:32:32-p272:64:64-i64:64-i128:128-f80:128-n8:16:32:64-S128"
target triple = "x86_64-pc-linux-gnu"

%class.MarkedFileReader = type { %class.FileReader, i64 }
%class.FileReader = type { ptr, ptr }
%"class.DwarfFile::MarkedDwarfFileReader" = type { %class.MarkedFileReader, i64, i64 }

; Function Attrs: mustprogress nounwind uwtable
define hidden noundef zeroext i1 @_ZN10FileReader4readEPvm(ptr noundef nonnull align 8 dereferenceable(16) %0, ptr noundef %1, i64 noundef %2) #1 align 2 {
  %4 = alloca ptr, align 8
  %5 = alloca ptr, align 8
  %6 = alloca i64, align 8
  store ptr %0, ptr %4, align 8
  store ptr %1, ptr %5, align 8
  store i64 %2, ptr %6, align 8
  %7 = load ptr, ptr %4, align 8
  %8 = load ptr, ptr %5, align 8
  %9 = load i64, ptr %6, align 8
  %10 = getelementptr inbounds %class.FileReader, ptr %7, i32 0, i32 1
  %11 = load ptr, ptr %10, align 8
  %12 = call i64 @fread(ptr noundef %8, i64 noundef %9, i64 noundef 1, ptr noundef %11)
  %13 = icmp eq i64 %12, 1
  ret i1 %13
}

; Function Attrs: mustprogress nounwind uwtable
define hidden noundef zeroext i1 @_ZN9DwarfFile21MarkedDwarfFileReader9read_byteEPv(ptr noundef nonnull align 8 dereferenceable(40) %0, ptr noundef %1) #1 align 2 {
  %3 = alloca ptr, align 8
  %4 = alloca ptr, align 8
  store ptr %0, ptr %3, align 8
  store ptr %1, ptr %4, align 8
  %5 = load ptr, ptr %3, align 8
  %6 = getelementptr inbounds %"class.DwarfFile::MarkedDwarfFileReader", ptr %5, i32 0, i32 1
  %7 = load i64, ptr %6, align 8
  %8 = add nsw i64 %7, 1
  store i64 %8, ptr %6, align 8
  %9 = load ptr, ptr %4, align 8
  %10 = call noundef zeroext i1 @_ZN10FileReader4readEPvm(ptr noundef nonnull align 8 dereferenceable(16) %5, ptr noundef %9, i64 noundef 1)
  ret i1 %10
}

; Function Attrs: mustprogress nounwind uwtable
define hidden noundef zeroext i1 @_ZN9DwarfFile21MarkedDwarfFileReader11read_leb128EPmab(ptr noundef nonnull align 8 dereferenceable(40) %0, ptr noundef %1, i8 noundef signext %2, i1 noundef zeroext %3) #1 align 2 {
  %5 = alloca i1, align 1
  %6 = alloca ptr, align 8
  %7 = alloca ptr, align 8
  %8 = alloca i8, align 1
  %9 = alloca i8, align 1
  %10 = alloca i8, align 1
  %11 = alloca i8, align 1
  %12 = alloca i8, align 1
  store ptr %0, ptr %6, align 8
  store ptr %1, ptr %7, align 8
  store i8 %2, ptr %8, align 1
  %13 = zext i1 %3 to i8
  store i8 %13, ptr %9, align 1
  %14 = load ptr, ptr %6, align 8
  %15 = load ptr, ptr %7, align 8
  store i64 0, ptr %15, align 8
  store i8 0, ptr %11, align 1
  store i8 0, ptr %12, align 1
  br label %16

16:                                               ; preds = %45, %4
  %17 = load i8, ptr %12, align 1
  %18 = zext i8 %17 to i32
  %19 = icmp slt i32 %18, 8
  br i1 %19, label %20, label %46

20:                                               ; preds = %16
  %21 = call noundef zeroext i1 @_ZN9DwarfFile21MarkedDwarfFileReader9read_byteEPv(ptr noundef nonnull align 8 dereferenceable(40) %14, ptr noundef %10)
  br i1 %21, label %23, label %22

22:                                               ; preds = %20
  store i1 false, ptr %5, align 1
  br label %82

23:                                               ; preds = %20
  %24 = load i8, ptr %12, align 1
  %25 = add i8 %24, 1
  store i8 %25, ptr %12, align 1
  %26 = load i8, ptr %10, align 1
  %27 = zext i8 %26 to i32
  %28 = and i32 %27, 127
  %29 = load i8, ptr %11, align 1
  %30 = zext i8 %29 to i32
  %31 = shl i32 %28, %30
  %32 = zext i32 %31 to i64
  %33 = load ptr, ptr %7, align 8
  %34 = load i64, ptr %33, align 8
  %35 = or i64 %34, %32
  store i64 %35, ptr %33, align 8
  %36 = load i8, ptr %11, align 1
  %37 = zext i8 %36 to i32
  %38 = add nsw i32 %37, 7
  %39 = trunc i32 %38 to i8
  store i8 %39, ptr %11, align 1
  %40 = load i8, ptr %10, align 1
  %41 = zext i8 %40 to i32
  %42 = and i32 %41, 128
  %43 = icmp eq i32 %42, 0
  br i1 %43, label %44, label %45

44:                                               ; preds = %23
  br label %46

45:                                               ; preds = %23
  br label %16, !llvm.loop !23

46:                                               ; preds = %44, %16
  %47 = load i8, ptr %12, align 1
  %48 = zext i8 %47 to i32
  %49 = icmp sgt i32 %48, 8
  br i1 %49, label %60, label %50

50:                                               ; preds = %46
  %51 = load i8, ptr %8, align 1
  %52 = sext i8 %51 to i32
  %53 = icmp ne i32 %52, -1
  br i1 %53, label %54, label %61

54:                                               ; preds = %50
  %55 = load i8, ptr %12, align 1
  %56 = zext i8 %55 to i32
  %57 = load i8, ptr %8, align 1
  %58 = sext i8 %57 to i32
  %59 = icmp sgt i32 %56, %58
  br i1 %59, label %60, label %61

60:                                               ; preds = %54, %46
  store i1 false, ptr %5, align 1
  br label %82

61:                                               ; preds = %54, %50
  %62 = load i8, ptr %9, align 1
  %63 = trunc i8 %62 to i1
  br i1 %63, label %64, label %81

64:                                               ; preds = %61
  %65 = load i8, ptr %11, align 1
  %66 = zext i8 %65 to i32
  %67 = icmp slt i32 %66, 64
  br i1 %67, label %68, label %81

68:                                               ; preds = %64
  %69 = load i8, ptr %10, align 1
  %70 = zext i8 %69 to i32
  %71 = and i32 %70, 64
  %72 = icmp ne i32 %71, 0
  br i1 %72, label %73, label %81

73:                                               ; preds = %68
  %74 = load i8, ptr %11, align 1
  %75 = zext i8 %74 to i32
  %76 = zext i32 %75 to i64
  %77 = shl i64 -1, %76
  %78 = load ptr, ptr %7, align 8
  %79 = load i64, ptr %78, align 8
  %80 = or i64 %79, %77
  store i64 %80, ptr %78, align 8
  br label %81

81:                                               ; preds = %73, %68, %64, %61
  store i1 true, ptr %5, align 1
  br label %82

82:                                               ; preds = %81, %60, %22
  %83 = load i1, ptr %5, align 1
  ret i1 %83
}

; Function Attrs: mustprogress nounwind uwtable
define hidden noundef zeroext i1 @_ZN9DwarfFile21MarkedDwarfFileReader19read_uleb128_ignoreEa(ptr noundef nonnull align 8 dereferenceable(40) %0, i8 noundef signext %1) #1 align 2 {
  %3 = alloca ptr, align 8
  %4 = alloca i8, align 1
  %5 = alloca i64, align 8
  store ptr %0, ptr %3, align 8
  store i8 %1, ptr %4, align 1
  %6 = load ptr, ptr %3, align 8
  %7 = load i8, ptr %4, align 1
  %8 = call noundef zeroext i1 @_ZN9DwarfFile21MarkedDwarfFileReader11read_leb128EPmab(ptr noundef nonnull align 8 dereferenceable(40) %6, ptr noundef %5, i8 noundef signext %7, i1 noundef zeroext false)
  ret i1 %8
}