; Function Attrs: mustprogress nofree nounwind uwtable
define hidden noundef zeroext i1 @_ZN9DwarfFile21MarkedDwarfFileReader19read_uleb128_ignoreEa(ptr nocapture noundef nonnull align 8 dereferenceable(40) %0, i8 noundef signext %1) local_unnamed_addr #3 align 2 {
  %3 = alloca i8, align 1
  call void @llvm.lifetime.start.p0(i64 1, ptr nonnull %3)
  %4 = getelementptr inbounds i8, ptr %0, i64 24
  %5 = getelementptr inbounds i8, ptr %0, i64 8
  br label %6

6:                                                ; preds = %12, %2
  %.0.i = phi i8 [ 0, %2 ], [ %13, %12 ]
  %7 = load i64, ptr %4, align 8
  %8 = add nsw i64 %7, 1
  store i64 %8, ptr %4, align 8
  %9 = load ptr, ptr %5, align 8
  %10 = call i64 @fread(ptr noundef nonnull %3, i64 noundef 1, i64 noundef 1, ptr noundef %9)
  %11 = icmp eq i64 %10, 1
  br i1 %11, label %12, label %_ZN9DwarfFile21MarkedDwarfFileReader11read_leb128EPmab.exit

12:                                               ; preds = %6
  %13 = add nuw nsw i8 %.0.i, 1
  %14 = load i8, ptr %3, align 1
  %15 = icmp slt i8 %14, 0
  %16 = icmp ult i8 %.0.i, 7
  %or.cond5.i = select i1 %15, i1 %16, i1 false
  br i1 %or.cond5.i, label %6, label %17, !llvm.loop !15

17:                                               ; preds = %12
  %18 = icmp ugt i8 %.0.i, 7
  br i1 %18, label %_ZN9DwarfFile21MarkedDwarfFileReader11read_leb128EPmab.exit, label %19

19:                                               ; preds = %17
  %.not.i = icmp eq i8 %1, -1
  %20 = icmp slt i8 %.0.i, %1
  %or.cond29.i.not = select i1 %.not.i, i1 true, i1 %20
  br label %_ZN9DwarfFile21MarkedDwarfFileReader11read_leb128EPmab.exit

_ZN9DwarfFile21MarkedDwarfFileReader11read_leb128EPmab.exit: ; preds = %6, %19, %17
  %.023.i = phi i1 [ false, %17 ], [ %or.cond29.i.not, %19 ], [ false, %6 ]
  call void @llvm.lifetime.end.p0(i64 1, ptr nonnull %3)
  ret i1 %.023.i
}